; ModuleID = 'source-C-CXX/22/1007.c'
source_filename = "source-C-CXX/22/1007.c"
target datalayout = "e-m:e-p270:32:32-p271:32:32-p272:64:64-i64:64-f80:128-n8:16:32:64-S128"
target triple = "x86_64-pc-linux-gnu"

; Function Attrs: nounwind sspstrong uwtable
define dso_local void @main() local_unnamed_addr #0 {
  %1 = alloca [100 x i8], align 16
  %2 = getelementptr inbounds [100 x i8], [100 x i8]* %1, i64 0, i64 0
  call void @llvm.lifetime.start.p0i8(i64 100, i8* nonnull %2) #5
  %3 = call i32 (i8*, ...) bitcast (i32 (...)* @gets to i32 (i8*, ...)*)(i8* nonnull %2) #5
  %4 = call i64 @strlen(i8* noundef nonnull %2) #6
  %5 = trunc i64 %4 to i32
  %6 = icmp sgt i32 %5, 0
  br i1 %6, label %7, label %51

7:                                                ; preds = %0
  %8 = shl i64 %4, 32
  %9 = ashr exact i64 %8, 32
  %10 = and i64 %4, 4294967295
  br label %15

11:                                               ; preds = %38
  %12 = icmp sgt i32 %39, 0
  br i1 %12, label %13, label %51

13:                                               ; preds = %11
  %14 = zext i32 %39 to i64
  br label %43

15:                                               ; preds = %7, %38
  %16 = phi i64 [ %10, %7 ], [ %42, %38 ]
  %17 = phi i64 [ %9, %7 ], [ %41, %38 ]
  %18 = phi i32 [ %5, %7 ], [ %39, %38 ]
  %19 = phi i32 [ %5, %7 ], [ %20, %38 ]
  %20 = add nsw i32 %19, -1
  %21 = zext i32 %20 to i64
  %22 = getelementptr inbounds [100 x i8], [100 x i8]* %1, i64 0, i64 %21
  %23 = load i8, i8* %22, align 1, !tbaa !5
  %24 = icmp eq i8 %23, 32
  br i1 %24, label %25, label %38

25:                                               ; preds = %15
  %26 = sext i32 %18 to i64
  %27 = icmp slt i64 %16, %26
  br i1 %27, label %28, label %36

28:                                               ; preds = %25, %28
  %29 = phi i64 [ %34, %28 ], [ %17, %25 ]
  %30 = getelementptr inbounds [100 x i8], [100 x i8]* %1, i64 0, i64 %29
  %31 = load i8, i8* %30, align 1, !tbaa !5
  %32 = sext i8 %31 to i32
  %33 = call i32 @putchar(i32 %32)
  %34 = add nsw i64 %29, 1
  %35 = icmp slt i64 %34, %26
  br i1 %35, label %28, label %36, !llvm.loop !8

36:                                               ; preds = %28, %25
  %37 = call i32 @putchar(i32 32)
  br label %38

38:                                               ; preds = %15, %36
  %39 = phi i32 [ %20, %36 ], [ %18, %15 ]
  %40 = icmp sgt i64 %16, 1
  %41 = add nsw i64 %17, -1
  %42 = add nsw i64 %16, -1
  br i1 %40, label %15, label %11, !llvm.loop !10

43:                                               ; preds = %13, %43
  %44 = phi i64 [ 0, %13 ], [ %49, %43 ]
  %45 = getelementptr inbounds [100 x i8], [100 x i8]* %1, i64 0, i64 %44
  %46 = load i8, i8* %45, align 1, !tbaa !5
  %47 = sext i8 %46 to i32
  %48 = call i32 @putchar(i32 %47)
  %49 = add nuw nsw i64 %44, 1
  %50 = icmp eq i64 %49, %14
  br i1 %50, label %51, label %43, !llvm.loop !11

51:                                               ; preds = %43, %0, %11
  %52 = call i32 @putchar(i32 10)
  call void @llvm.lifetime.end.p0i8(i64 100, i8* nonnull %2) #5
  ret void
}

; Function Attrs: argmemonly mustprogress nofree nosync nounwind willreturn
declare void @llvm.lifetime.start.p0i8(i64 immarg, i8* nocapture) #1

declare i32 @gets(...) local_unnamed_addr #2

; Function Attrs: argmemonly mustprogress nofree nounwind readonly willreturn
declare i64 @strlen(i8* nocapture) local_unnamed_addr #3

; Function Attrs: argmemonly mustprogress nofree nosync nounwind willreturn
declare void @llvm.lifetime.end.p0i8(i64 immarg, i8* nocapture) #1

; Function Attrs: nofree nounwind
declare noundef i32 @putchar(i32 noundef) local_unnamed_addr #4


!llvm.module.flags = !{!0, !1, !2, !3}
!llvm.ident = !{!4}

!0 = !{i32 1, !"wchar_size", i32 4}
!1 = !{i32 7, !"PIC Level", i32 2}
!2 = !{i32 7, !"PIE Level", i32 2}
!3 = !{i32 7, !"uwtable", i32 1}
!4 = !{!"clang version 13.0.0"}
!5 = !{!6, !6, i64 0}
!6 = !{!"omnipotent char", !7, i64 0}
!7 = !{!"Simple C/C++ TBAA"}
!8 = distinct !{!8, !9}
!9 = !{!"llvm.loop.mustprogress"}
!10 = distinct !{!10, !9}
!11 = distinct !{!11, !9}
